; Function Attrs: mustprogress uwtable
define hidden void @_ZN17algebraic_numbers7manager3setERNS_4anumEi(ptr noundef nonnull readonly align 8 captures(none) dereferenceable(17) %0, ptr noundef nonnull align 8 dereferenceable(8) %1, i32 noundef %2) local_unnamed_addr #3 align 2 personality ptr @__gxx_personality_v0 {
  %4 = alloca %class._scoped_numeral.9, align 8
  call void @llvm.lifetime.start.p0(i64 40, ptr nonnull %4) #29
  %5 = load ptr, ptr %0, align 8, !tbaa !12
  %6 = getelementptr inbounds nuw i8, ptr %5, i64 24
  %7 = load ptr, ptr %6, align 8, !tbaa !65
  store ptr %7, ptr %4, align 8, !tbaa !18
  %8 = getelementptr inbounds nuw i8, ptr %4, i64 8
  %9 = getelementptr inbounds nuw i8, ptr %4, i64 12
  %10 = getelementptr inbounds nuw i8, ptr %4, i64 16
  store ptr null, ptr %10, align 8, !tbaa !26
  %11 = getelementptr inbounds nuw i8, ptr %4, i64 24
  store i32 1, ptr %11, align 8, !tbaa !22
  %12 = getelementptr inbounds nuw i8, ptr %4, i64 28
  store i8 0, ptr %12, align 4
  %13 = getelementptr inbounds nuw i8, ptr %4, i64 32
  store ptr null, ptr %13, align 8, !tbaa !26
  store i32 %2, ptr %8, align 8, !tbaa !22
  store i8 0, ptr %9, align 4
  invoke void @_ZN11mpz_managerILb0EE3delEPS0_R3mpz(ptr noundef nonnull align 8 dereferenceable(728) %7, ptr noundef nonnull align 8 dereferenceable(16) %11)
          to label %14 unwind label %22

14:                                               ; preds = %3
  store i32 1, ptr %11, align 8, !tbaa !22
  %15 = load i8, ptr %12, align 4
  %16 = and i8 %15, -2
  store i8 %16, ptr %12, align 4
  %17 = load ptr, ptr %0, align 8, !tbaa !12
  invoke void @_ZN17algebraic_numbers7manager3imp3setERNS_4anumERK3mpq(ptr noundef nonnull align 8 dereferenceable(936) %17, ptr noundef nonnull align 8 dereferenceable(8) %1, ptr noundef nonnull align 8 dereferenceable(32) %8)
          to label %_ZN17algebraic_numbers7manager3setERNS_4anumERK3mpq.exit unwind label %22

_ZN17algebraic_numbers7manager3setERNS_4anumERK3mpq.exit: ; preds = %14
  %18 = load ptr, ptr %4, align 8, !tbaa !73
  invoke void @_ZN11mpz_managerILb0EE3delEPS0_R3mpz(ptr noundef nonnull align 8 dereferenceable(728) %18, ptr noundef nonnull align 8 dereferenceable(32) %8)
          to label %.noexc.i unwind label %19

.noexc.i:                                         ; preds = %_ZN17algebraic_numbers7manager3setERNS_4anumERK3mpq.exit
  invoke void @_ZN11mpz_managerILb0EE3delEPS0_R3mpz(ptr noundef nonnull align 8 dereferenceable(728) %18, ptr noundef nonnull align 8 dereferenceable(16) %11)
          to label %_ZN15_scoped_numeralI11mpq_managerILb0EEED2Ev.exit unwind label %19

19:                                               ; preds = %.noexc.i, %_ZN17algebraic_numbers7manager3setERNS_4anumERK3mpq.exit
  %20 = landingpad { ptr, i32 }
          catch ptr null
  %21 = extractvalue { ptr, i32 } %20, 0
  call void @__clang_call_terminate(ptr %21) #30
  unreachable

_ZN15_scoped_numeralI11mpq_managerILb0EEED2Ev.exit: ; preds = %.noexc.i
  call void @llvm.lifetime.end.p0(i64 40, ptr nonnull %4) #29
  ret void

22:                                               ; preds = %14, %3
  %23 = landingpad { ptr, i32 }
          cleanup
  call void @_ZN15_scoped_numeralI11mpq_managerILb0EEED2Ev(ptr noundef nonnull align 8 dereferenceable(40) %4) #29
  call void @llvm.lifetime.end.p0(i64 40, ptr nonnull %4) #29
  resume { ptr, i32 } %23
}